target datalayout = "e-m:e-p270:32:32-p271:32:32-p272:64:64-i64:64-i128:128-f80:128-n8:16:32:64-S128"
target triple = "x86_64-pc-linux-gnu"

%struct._address = type { i32, i32, ptr, ptr }
%struct._packet_info = type { ptr, ptr, i32, i32, %struct.nstime_t, %struct.nstime_t, %struct.nstime_t, i8, ptr, ptr, ptr, ptr, %struct._address, %struct._address, %struct._address, %struct._address, %struct._address, %struct._address, i32, ptr, i8, [3 x i8], %struct.anon, i32, i32, i32, i32, ptr, i8, ptr, ptr, i16, i16, i32, i32, i16, i32, i32, ptr, ptr, ptr, i8, i8, i16, i16, i16, i32, i16, i16, ptr, ptr, ptr, ptr, ptr, i32, i32 }
%struct.nstime_t = type { i64, i32 }
%struct.anon = type { i8, [3 x i8] }
%struct._frame_data = type <{ i32, i32, i32, i32, i32, [4 x i8], i64, ptr, ptr, ptr, i8, i16, [5 x i8], %struct.nstime_t, %struct.nstime_t, i32, i32 }>
%struct._rtcp_conversation_info = type { i8, [11 x i8], i32, i8, i32, %struct.nstime_t, i32, i8, i32, i32, i32, ptr }

@rtcp_handle = internal global ptr null, align 8
@proto_rtcp = internal global i32 0, align 4

; Function Attrs: inlinehint nounwind null_pointer_is_valid sspstrong uwtable
define internal void @clear_address(ptr noundef %0) #2 {
  %2 = alloca ptr, align 8
  store ptr %0, ptr %2, align 8
  %3 = load ptr, ptr %2, align 8
  %4 = getelementptr inbounds nuw %struct._address, ptr %3, i32 0, i32 0
  store i32 0, ptr %4, align 8
  %5 = load ptr, ptr %2, align 8
  %6 = getelementptr inbounds nuw %struct._address, ptr %5, i32 0, i32 1
  store i32 0, ptr %6, align 4
  %7 = load ptr, ptr %2, align 8
  %8 = getelementptr inbounds nuw %struct._address, ptr %7, i32 0, i32 2
  store ptr null, ptr %8, align 8
  %9 = load ptr, ptr %2, align 8
  %10 = getelementptr inbounds nuw %struct._address, ptr %9, i32 0, i32 3
  store ptr null, ptr %10, align 8
  ret void
}

; Function Attrs: null_pointer_is_valid sspstrong uwtable
define void @srtcp_add_address(ptr noundef %0, ptr noundef %1, i32 noundef %2, i32 noundef %3, ptr noundef %4, i32 noundef %5, ptr noundef %6) #0 {
  %8 = alloca ptr, align 8
  %9 = alloca ptr, align 8
  %10 = alloca i32, align 4
  %11 = alloca i32, align 4
  %12 = alloca ptr, align 8
  %13 = alloca i32, align 4
  %14 = alloca ptr, align 8
  %15 = alloca %struct._address, align 8
  %16 = alloca ptr, align 8
  %17 = alloca ptr, align 8
  %18 = alloca i32, align 4
  store ptr %0, ptr %8, align 8
  store ptr %1, ptr %9, align 8
  store i32 %2, ptr %10, align 4
  store i32 %3, ptr %11, align 4
  store ptr %4, ptr %12, align 8
  store i32 %5, ptr %13, align 4
  store ptr %6, ptr %14, align 8
  call void @llvm.lifetime.start.p0(i64 24, ptr %15) #9
  call void @llvm.lifetime.start.p0(i64 8, ptr %16) #9
  call void @llvm.lifetime.start.p0(i64 8, ptr %17) #9
  %19 = load ptr, ptr %8, align 8
  %20 = getelementptr inbounds nuw %struct._packet_info, ptr %19, i32 0, i32 8
  %21 = load ptr, ptr %20, align 8
  %22 = getelementptr inbounds nuw %struct._frame_data, ptr %21, i32 0, i32 11
  %23 = load i16, ptr %22, align 1
  %24 = lshr i16 %23, 3
  %25 = and i16 %24, 1
  %26 = zext i16 %25 to i32
  %27 = icmp ne i32 %26, 0
  br i1 %27, label %28, label %29

28:                                               ; preds = %7
  store i32 1, ptr %18, align 4
  br label %81

29:                                               ; preds = %7
  call void @clear_address(ptr noundef %15)
  %30 = load i32, ptr %13, align 4
  %31 = load ptr, ptr %9, align 8
  %32 = load i32, ptr %10, align 4
  %33 = load i32, ptr %11, align 4
  %34 = load i32, ptr %11, align 4
  %35 = icmp ne i32 %34, 0
  %36 = xor i1 %35, true
  %37 = select i1 %36, i32 131072, i32 0
  %38 = or i32 65536, %37
  %39 = call ptr @find_conversation(i32 noundef %30, ptr noundef %31, ptr noundef %15, i32 noundef 3, i32 noundef %32, i32 noundef %33, i32 noundef %38)
  store ptr %39, ptr %16, align 8
  %40 = load ptr, ptr %16, align 8
  %41 = icmp ne ptr %40, null
  br i1 %41, label %53, label %42

42:                                               ; preds = %29
  %43 = load i32, ptr %13, align 4
  %44 = load ptr, ptr %9, align 8
  %45 = load i32, ptr %10, align 4
  %46 = load i32, ptr %11, align 4
  %47 = load i32, ptr %11, align 4
  %48 = icmp ne i32 %47, 0
  %49 = xor i1 %48, true
  %50 = select i1 %49, i32 2, i32 0
  %51 = or i32 1, %50
  %52 = call ptr @conversation_new(i32 noundef %43, ptr noundef %44, ptr noundef %15, i32 noundef 3, i32 noundef %45, i32 noundef %46, i32 noundef %51)
  store ptr %52, ptr %16, align 8
  br label %53

53:                                               ; preds = %42, %29
  %54 = load ptr, ptr %16, align 8
  %55 = load ptr, ptr @rtcp_handle, align 8
  call void @conversation_set_dissector(ptr noundef %54, ptr noundef %55)
  %56 = load ptr, ptr %16, align 8
  %57 = load i32, ptr @proto_rtcp, align 4
  %58 = call ptr @conversation_get_proto_data(ptr noundef %56, i32 noundef %57)
  store ptr %58, ptr %17, align 8
  %59 = load ptr, ptr %17, align 8
  %60 = icmp ne ptr %59, null
  br i1 %60, label %67, label %61

61:                                               ; preds = %53
  %62 = call ptr @wmem_file_scope()
  %63 = call noalias ptr @wmem_alloc0(ptr noundef %62, i64 noundef 72) #10
  store ptr %63, ptr %17, align 8
  %64 = load ptr, ptr %16, align 8
  %65 = load i32, ptr @proto_rtcp, align 4
  %66 = load ptr, ptr %17, align 8
  call void @conversation_add_proto_data(ptr noundef %64, i32 noundef %65, ptr noundef %66)
  br label %67

67:                                               ; preds = %61, %53
  %68 = load ptr, ptr %17, align 8
  %69 = getelementptr inbounds nuw %struct._rtcp_conversation_info, ptr %68, i32 0, i32 0
  store i8 1, ptr %69, align 8
  %70 = load ptr, ptr %17, align 8
  %71 = getelementptr inbounds nuw %struct._rtcp_conversation_info, ptr %70, i32 0, i32 1
  %72 = getelementptr inbounds [11 x i8], ptr %71, i64 0, i64 0
  %73 = load ptr, ptr %12, align 8
  %74 = call i64 @g_strlcpy(ptr noundef %72, ptr noundef %73, i64 noundef 10)
  %75 = load i32, ptr %13, align 4
  %76 = load ptr, ptr %17, align 8
  %77 = getelementptr inbounds nuw %struct._rtcp_conversation_info, ptr %76, i32 0, i32 2
  store i32 %75, ptr %77, align 4
  %78 = load ptr, ptr %14, align 8
  %79 = load ptr, ptr %17, align 8
  %80 = getelementptr inbounds nuw %struct._rtcp_conversation_info, ptr %79, i32 0, i32 11
  store ptr %78, ptr %80, align 8
  store i32 0, ptr %18, align 4
  br label %81

81:                                               ; preds = %67, %28
  call void @llvm.lifetime.end.p0(i64 8, ptr %17) #9
  call void @llvm.lifetime.end.p0(i64 8, ptr %16) #9
  call void @llvm.lifetime.end.p0(i64 24, ptr %15) #9
  %82 = load i32, ptr %18, align 4
  switch i32 %82, label %84 [
    i32 0, label %83
    i32 1, label %83
  ]

83:                                               ; preds = %81, %81
  ret void

84:                                               ; preds = %81
  unreachable
}