; Function Attrs: null_pointer_is_valid sspstrong uwtable
define void @srtcp_add_address(ptr noundef readonly captures(none) %0, ptr noundef %1, i32 noundef %2, i32 noundef %3, ptr noundef %4, i32 noundef %5, ptr noundef %6) local_unnamed_addr #0 {
  %8 = alloca %struct._address, align 8
  call void @llvm.lifetime.start.p0(i64 24, ptr nonnull %8) #9
  %9 = getelementptr inbounds nuw i8, ptr %0, i64 80
  %10 = load ptr, ptr %9, align 8
  %11 = getelementptr inbounds nuw i8, ptr %10, i64 57
  %12 = load i16, ptr %11, align 1
  %13 = and i16 %12, 8
  %.not = icmp eq i16 %13, 0
  br i1 %.not, label %14, label %33

14:                                               ; preds = %7
  call void @llvm.memset.p0.i64(ptr noundef nonnull align 8 dereferenceable(24) %8, i8 0, i64 24, i1 false)
  %.not26 = icmp eq i32 %3, 0
  %15 = select i1 %.not26, i32 196608, i32 65536
  %16 = call ptr @find_conversation(i32 noundef %5, ptr noundef %1, ptr noundef nonnull %8, i32 noundef 3, i32 noundef %2, i32 noundef %3, i32 noundef %15)
  %.not27 = icmp eq ptr %16, null
  br i1 %.not27, label %17, label %20

17:                                               ; preds = %14
  %18 = select i1 %.not26, i32 3, i32 1
  %19 = call ptr @conversation_new(i32 noundef %5, ptr noundef %1, ptr noundef nonnull %8, i32 noundef 3, i32 noundef %2, i32 noundef %3, i32 noundef %18)
  br label %20

20:                                               ; preds = %17, %14
  %.023 = phi ptr [ %16, %14 ], [ %19, %17 ]
  %21 = load ptr, ptr @rtcp_handle, align 8
  call void @conversation_set_dissector(ptr noundef %.023, ptr noundef %21)
  %22 = load i32, ptr @proto_rtcp, align 4
  %23 = call ptr @conversation_get_proto_data(ptr noundef %.023, i32 noundef %22)
  %.not28 = icmp eq ptr %23, null
  br i1 %.not28, label %24, label %28

24:                                               ; preds = %20
  %25 = call ptr @wmem_file_scope()
  %26 = call noalias dereferenceable_or_null(72) ptr @wmem_alloc0(ptr noundef %25, i64 noundef 72) #10
  %27 = load i32, ptr @proto_rtcp, align 4
  call void @conversation_add_proto_data(ptr noundef %.023, i32 noundef %27, ptr noundef %26)
  br label %28

28:                                               ; preds = %24, %20
  %.0 = phi ptr [ %23, %20 ], [ %26, %24 ]
  store i8 1, ptr %.0, align 8
  %29 = getelementptr inbounds nuw i8, ptr %.0, i64 1
  %30 = call i64 @g_strlcpy(ptr noundef nonnull %29, ptr noundef %4, i64 noundef 10)
  %31 = getelementptr inbounds nuw i8, ptr %.0, i64 12
  store i32 %5, ptr %31, align 4
  %32 = getelementptr inbounds nuw i8, ptr %.0, i64 64
  store ptr %6, ptr %32, align 8
  br label %33

33:                                               ; preds = %7, %28
  call void @llvm.lifetime.end.p0(i64 24, ptr nonnull %8) #9
  ret void
}